target datalayout = "e-m:e-p270:32:32-p271:32:32-p272:64:64-i64:64-i128:128-f80:128-n8:16:32:64-S128"
target triple = "x86_64-pc-linux-gnu"

%struct._header_field_info = type { ptr, ptr, i32, i32, ptr, i64, ptr, i32, i32, i32, i32, ptr }
%struct._proto_node = type { ptr, ptr, ptr, ptr, ptr, ptr, ptr }
%struct.field_info = type { ptr, i32, i32, i32, i32, i32, i32, ptr, ptr, ptr, i32, i32 }
%struct.ffdata_t = type { ptr, i32 }

; Function Attrs: null_pointer_is_valid sspstrong uwtable
define internal zeroext i1 @find_first_finfo(ptr noundef %0, ptr noundef %1) #0 {
  %3 = alloca i1, align 1
  %4 = alloca ptr, align 8
  %5 = alloca ptr, align 8
  %6 = alloca ptr, align 8
  %7 = alloca i32, align 4
  store ptr %0, ptr %4, align 8
  store ptr %1, ptr %5, align 8
  call void @llvm.lifetime.start.p0(i64 8, ptr %6) #24
  %8 = load ptr, ptr %4, align 8
  %9 = getelementptr inbounds nuw %struct._proto_node, ptr %8, i32 0, i32 5
  %10 = load ptr, ptr %9, align 8
  store ptr %10, ptr %6, align 8
  %11 = load ptr, ptr %6, align 8
  %12 = icmp ne ptr %11, null
  br i1 %12, label %13, label %34

13:                                               ; preds = %2
  %14 = load ptr, ptr %6, align 8
  %15 = getelementptr inbounds nuw %struct.field_info, ptr %14, i32 0, i32 0
  %16 = load ptr, ptr %15, align 8
  %17 = icmp ne ptr %16, null
  br i1 %17, label %18, label %34

18:                                               ; preds = %13
  %19 = load ptr, ptr %6, align 8
  %20 = getelementptr inbounds nuw %struct.field_info, ptr %19, i32 0, i32 0
  %21 = load ptr, ptr %20, align 8
  %22 = getelementptr inbounds nuw %struct._header_field_info, ptr %21, i32 0, i32 7
  %23 = load i32, ptr %22, align 8
  %24 = load ptr, ptr %5, align 8
  %25 = getelementptr inbounds nuw %struct.ffdata_t, ptr %24, i32 0, i32 1
  %26 = load i32, ptr %25, align 8
  %27 = icmp eq i32 %23, %26
  br i1 %27, label %28, label %33

28:                                               ; preds = %18
  %29 = load ptr, ptr %5, align 8
  %30 = getelementptr inbounds nuw %struct.ffdata_t, ptr %29, i32 0, i32 0
  %31 = load ptr, ptr %30, align 8
  %32 = load ptr, ptr %6, align 8
  call void @g_ptr_array_add(ptr noundef %31, ptr noundef %32)
  store i1 true, ptr %3, align 1
  store i32 1, ptr %7, align 4
  br label %35

33:                                               ; preds = %18
  br label %34

34:                                               ; preds = %33, %13, %2
  store i1 false, ptr %3, align 1
  store i32 1, ptr %7, align 4
  br label %35

35:                                               ; preds = %34, %28
  call void @llvm.lifetime.end.p0(i64 8, ptr %6) #24
  %36 = load i1, ptr %3, align 1
  ret i1 %36
}