; Function Attrs: null_pointer_is_valid sspstrong uwtable
define internal noundef zeroext i1 @find_first_finfo(ptr noundef readonly captures(none) %0, ptr noundef readonly captures(none) %1) #0 {
  %3 = getelementptr inbounds nuw i8, ptr %0, i64 40
  %4 = load ptr, ptr %3, align 8
  %.not = icmp eq ptr %4, null
  br i1 %.not, label %15, label %5

5:                                                ; preds = %2
  %6 = load ptr, ptr %4, align 8
  %.not10 = icmp eq ptr %6, null
  br i1 %.not10, label %15, label %7

7:                                                ; preds = %5
  %8 = getelementptr inbounds nuw i8, ptr %6, i64 48
  %9 = load i32, ptr %8, align 8
  %10 = getelementptr inbounds nuw i8, ptr %1, i64 8
  %11 = load i32, ptr %10, align 8
  %12 = icmp eq i32 %9, %11
  br i1 %12, label %13, label %15

13:                                               ; preds = %7
  %14 = load ptr, ptr %1, align 8
  tail call void @g_ptr_array_add(ptr noundef %14, ptr noundef nonnull %4)
  br label %15

15:                                               ; preds = %2, %5, %7, %13
  %.0 = phi i1 [ true, %13 ], [ false, %7 ], [ false, %5 ], [ false, %2 ]
  ret i1 %.0
}